target datalayout = "e-m:e-p270:32:32-p271:32:32-p272:64:64-i64:64-i128:128-f80:128-n8:16:32:64-S128"
target triple = "x86_64-unknown-linux-gnu"

%"class.grpc_core::Call" = type { ptr, %"class.grpc_core::RefCountedPtr", ptr, %"struct.std::atomic.0", ptr, %"class.grpc_core::Timestamp", i8, i8, i32, %"class.grpc_core::CompressionAlgorithmSet", i32, %"class.absl::lts_20230802::Mutex", %"class.grpc_core::Slice", double }
%"class.grpc_core::RefCountedPtr" = type { ptr }
%"struct.std::atomic.0" = type { %"struct.std::__atomic_base.1" }
%"struct.std::__atomic_base.1" = type { ptr }
%"class.grpc_core::Timestamp" = type { i64 }
%"class.grpc_core::CompressionAlgorithmSet" = type { %"class.grpc_core::BitSet" }
%"class.grpc_core::BitSet" = type { [1 x i8] }
%"class.absl::lts_20230802::Mutex" = type { %"struct.std::atomic.2" }
%"struct.std::atomic.2" = type { %"struct.std::__atomic_base.3" }
%"struct.std::__atomic_base.3" = type { i64 }
%"class.grpc_core::Slice" = type { %"class.grpc_core::slice_detail::BaseSlice" }
%"class.grpc_core::slice_detail::BaseSlice" = type { %struct.grpc_slice }
%struct.grpc_slice = type { ptr, %"union.grpc_slice::grpc_slice_data" }
%"union.grpc_slice::grpc_slice_data" = type { %"struct.grpc_slice::grpc_slice_data::grpc_slice_refcounted", [8 x i8] }
%"struct.grpc_slice::grpc_slice_data::grpc_slice_refcounted" = type { i64, ptr }
%"class.std::basic_string_view" = type { i64, ptr }
%"class.std::__cxx11::basic_string" = type { %"struct.std::__cxx11::basic_string<char>::_Alloc_hider", i64, %union.anon }
%"struct.std::__cxx11::basic_string<char>::_Alloc_hider" = type { ptr }
%union.anon = type { i64, [8 x i8] }
%"class.std::allocator.12" = type { i8 }
%"struct.std::__cxx11::basic_string<char>::__sv_wrapper" = type { %"class.std::basic_string_view" }

@.str.7 = private unnamed_addr constant [116 x i8] c"generated/home/dtcxzyw/WorkSpace/Projects/compilers/llvm-opt-benchmark/bench/grpc/grpc/src/core/lib/surface/call.cc\00", align 1
@.str.14 = private unnamed_addr constant [72 x i8] c"Compression algorithm ('%s') not present in the accepted encodings (%s)\00", align 1

; Function Attrs: mustprogress uwtable
define linkonce_odr void @_ZNSt7__cxx1112basic_stringIcSt11char_traitsIcESaIcEEC2ISt17basic_string_viewIcS2_EvEERKT_RKS3_(ptr noundef nonnull align 8 dereferenceable(32) %this, ptr noundef nonnull align 8 dereferenceable(16) %__t, ptr noundef nonnull align 1 dereferenceable(1) %__a) unnamed_addr #4 comdat align 2 {
entry:
  %this.addr = alloca ptr, align 8
  %__t.addr = alloca ptr, align 8
  %__a.addr = alloca ptr, align 8
  %agg.tmp = alloca %"struct.std::__cxx11::basic_string<char>::__sv_wrapper", align 8
  %agg.tmp2 = alloca %"class.std::basic_string_view", align 8
  %agg.tmp3 = alloca %"class.std::basic_string_view", align 8
  store ptr %this, ptr %this.addr, align 8
  store ptr %__t, ptr %__t.addr, align 8
  store ptr %__a, ptr %__a.addr, align 8
  %this1 = load ptr, ptr %this.addr, align 8
  %0 = load ptr, ptr %__t.addr, align 8
  call void @llvm.memcpy.p0.p0.i64(ptr align 8 %agg.tmp3, ptr align 8 %0, i64 16, i1 false)
  %1 = getelementptr inbounds { i64, ptr }, ptr %agg.tmp3, i32 0, i32 0
  %2 = load i64, ptr %1, align 8
  %3 = getelementptr inbounds { i64, ptr }, ptr %agg.tmp3, i32 0, i32 1
  %4 = load ptr, ptr %3, align 8
  %call = call { i64, ptr } @_ZNSt7__cxx1112basic_stringIcSt11char_traitsIcESaIcEE17_S_to_string_viewESt17basic_string_viewIcS2_E(i64 %2, ptr %4) #3
  %5 = getelementptr inbounds { i64, ptr }, ptr %agg.tmp2, i32 0, i32 0
  %6 = extractvalue { i64, ptr } %call, 0
  store i64 %6, ptr %5, align 8
  %7 = getelementptr inbounds { i64, ptr }, ptr %agg.tmp2, i32 0, i32 1
  %8 = extractvalue { i64, ptr } %call, 1
  store ptr %8, ptr %7, align 8
  %9 = getelementptr inbounds { i64, ptr }, ptr %agg.tmp2, i32 0, i32 0
  %10 = load i64, ptr %9, align 8
  %11 = getelementptr inbounds { i64, ptr }, ptr %agg.tmp2, i32 0, i32 1
  %12 = load ptr, ptr %11, align 8
  call void @_ZNSt7__cxx1112basic_stringIcSt11char_traitsIcESaIcEE12__sv_wrapperC1ESt17basic_string_viewIcS2_E(ptr noundef nonnull align 8 dereferenceable(16) %agg.tmp, i64 %10, ptr %12) #3
  %13 = load ptr, ptr %__a.addr, align 8
  %14 = getelementptr inbounds { i64, ptr }, ptr %agg.tmp, i32 0, i32 0
  %15 = load i64, ptr %14, align 8
  %16 = getelementptr inbounds { i64, ptr }, ptr %agg.tmp, i32 0, i32 1
  %17 = load ptr, ptr %16, align 8
  call void @_ZNSt7__cxx1112basic_stringIcSt11char_traitsIcESaIcEEC2ENS4_12__sv_wrapperERKS3_(ptr noundef nonnull align 8 dereferenceable(32) %this1, i64 %15, ptr %17, ptr noundef nonnull align 1 dereferenceable(1) %13)
  ret void
}

; Function Attrs: mustprogress uwtable
define void @_ZN9grpc_core4Call37HandleCompressionAlgorithmNotAcceptedE26grpc_compression_algorithm(ptr noundef nonnull align 8 dereferenceable(112) %this, i32 noundef %compression_algorithm) #4 align 2 personality ptr @__gxx_personality_v0 {
entry:
  %this.addr = alloca ptr, align 8
  %compression_algorithm.addr = alloca i32, align 4
  %algo_name = alloca ptr, align 8
  %ref.tmp = alloca %"class.std::__cxx11::basic_string", align 8
  %ref.tmp2 = alloca %"class.std::basic_string_view", align 8
  %ref.tmp4 = alloca %"class.std::allocator.12", align 1
  %exn.slot = alloca ptr, align 8
  %ehselector.slot = alloca i32, align 4
  store ptr %this, ptr %this.addr, align 8
  store i32 %compression_algorithm, ptr %compression_algorithm.addr, align 4
  %this1 = load ptr, ptr %this.addr, align 8
  store ptr null, ptr %algo_name, align 8
  %0 = load i32, ptr %compression_algorithm.addr, align 4
  %call = call i32 @grpc_compression_algorithm_name(i32 noundef %0, ptr noundef %algo_name)
  %1 = load ptr, ptr %algo_name, align 8
  %encodings_accepted_by_peer_ = getelementptr inbounds %"class.grpc_core::Call", ptr %this1, i32 0, i32 9
  %call3 = call { i64, ptr } @_ZNK9grpc_core23CompressionAlgorithmSet8ToStringEv(ptr noundef nonnull align 1 dereferenceable(1) %encodings_accepted_by_peer_)
  %2 = getelementptr inbounds { i64, ptr }, ptr %ref.tmp2, i32 0, i32 0
  %3 = extractvalue { i64, ptr } %call3, 0
  store i64 %3, ptr %2, align 8
  %4 = getelementptr inbounds { i64, ptr }, ptr %ref.tmp2, i32 0, i32 1
  %5 = extractvalue { i64, ptr } %call3, 1
  store ptr %5, ptr %4, align 8
  call void @_ZNSaIcEC1Ev(ptr noundef nonnull align 1 dereferenceable(1) %ref.tmp4) #3
  invoke void @_ZNSt7__cxx1112basic_stringIcSt11char_traitsIcESaIcEEC2ISt17basic_string_viewIcS2_EvEERKT_RKS3_(ptr noundef nonnull align 8 dereferenceable(32) %ref.tmp, ptr noundef nonnull align 8 dereferenceable(16) %ref.tmp2, ptr noundef nonnull align 1 dereferenceable(1) %ref.tmp4)
          to label %invoke.cont unwind label %lpad

invoke.cont:                                      ; preds = %entry
  %call5 = call noundef ptr @_ZNKSt7__cxx1112basic_stringIcSt11char_traitsIcESaIcEE5c_strEv(ptr noundef nonnull align 8 dereferenceable(32) %ref.tmp) #3
  invoke void (ptr, i32, i32, ptr, ...) @gpr_log(ptr noundef @.str.7, i32 noundef 485, i32 noundef 2, ptr noundef @.str.14, ptr noundef %1, ptr noundef %call5)
          to label %invoke.cont7 unwind label %lpad6

invoke.cont7:                                     ; preds = %invoke.cont
  call void @_ZNSt7__cxx1112basic_stringIcSt11char_traitsIcESaIcEED1Ev(ptr noundef nonnull align 8 dereferenceable(32) %ref.tmp) #3
  call void @_ZNSaIcED1Ev(ptr noundef nonnull align 1 dereferenceable(1) %ref.tmp4) #3
  ret void

lpad:                                             ; preds = %entry
  %6 = landingpad { ptr, i32 }
          cleanup
  %7 = extractvalue { ptr, i32 } %6, 0
  store ptr %7, ptr %exn.slot, align 8
  %8 = extractvalue { ptr, i32 } %6, 1
  store i32 %8, ptr %ehselector.slot, align 4
  br label %ehcleanup

lpad6:                                            ; preds = %invoke.cont
  %9 = landingpad { ptr, i32 }
          cleanup
  %10 = extractvalue { ptr, i32 } %9, 0
  store ptr %10, ptr %exn.slot, align 8
  %11 = extractvalue { ptr, i32 } %9, 1
  store i32 %11, ptr %ehselector.slot, align 4
  call void @_ZNSt7__cxx1112basic_stringIcSt11char_traitsIcESaIcEED1Ev(ptr noundef nonnull align 8 dereferenceable(32) %ref.tmp) #3
  br label %ehcleanup

ehcleanup:                                        ; preds = %lpad6, %lpad
  call void @_ZNSaIcED1Ev(ptr noundef nonnull align 1 dereferenceable(1) %ref.tmp4) #3
  br label %eh.resume

eh.resume:                                        ; preds = %ehcleanup
  %exn = load ptr, ptr %exn.slot, align 8
  %sel = load i32, ptr %ehselector.slot, align 4
  %lpad.val = insertvalue { ptr, i32 } poison, ptr %exn, 0
  %lpad.val8 = insertvalue { ptr, i32 } %lpad.val, i32 %sel, 1
  resume { ptr, i32 } %lpad.val8
}